; Function Attrs: nounwind uwtable
define range(i32 -12, 1) i32 @ff_append_inpad(ptr noundef captures(none) %0, ptr noundef %1) local_unnamed_addr #0 {
  %3 = getelementptr inbounds nuw i8, ptr %0, i64 40
  %4 = getelementptr inbounds nuw i8, ptr %0, i64 24
  %5 = getelementptr inbounds nuw i8, ptr %0, i64 32
  %6 = load i32, ptr %3, align 4, !tbaa !4
  %7 = load ptr, ptr %4, align 8, !tbaa !8
  %8 = add i32 %6, 1
  %9 = zext i32 %8 to i64
  %10 = tail call ptr @av_realloc_array(ptr noundef %7, i64 noundef %9, i64 noundef 48) #15
  %11 = load ptr, ptr %5, align 8, !tbaa !11
  %12 = tail call ptr @av_realloc_array(ptr noundef %11, i64 noundef %9, i64 noundef 8) #15
  %.not26.i = icmp eq ptr %10, null
  br i1 %.not26.i, label %13, label %.thread27.i

13:                                               ; preds = %2
  %.not25.i = icmp eq ptr %12, null
  br i1 %.not25.i, label %.thread.i, label %14

.thread27.i:                                      ; preds = %2
  store ptr %10, ptr %4, align 8, !tbaa !8
  %.not2528.i = icmp eq ptr %12, null
  br i1 %.not2528.i, label %.thread.i, label %19

14:                                               ; preds = %13
  store ptr %12, ptr %5, align 8, !tbaa !11
  br label %.thread.i

.thread.i:                                        ; preds = %14, %.thread27.i, %13
  %15 = getelementptr inbounds nuw i8, ptr %1, i64 12
  %16 = load i32, ptr %15, align 4, !tbaa !14
  %17 = and i32 %16, 2
  %.not.i = icmp eq i32 %17, 0
  br i1 %.not.i, label %append_pad.exit, label %18

18:                                               ; preds = %.thread.i
  tail call void @av_freep(ptr noundef nonnull %1) #15
  br label %append_pad.exit

19:                                               ; preds = %.thread27.i
  store ptr %12, ptr %5, align 8, !tbaa !11
  %20 = zext i32 %6 to i64
  %21 = getelementptr inbounds nuw %struct.AVFilterPad, ptr %10, i64 %20
  tail call void @llvm.memcpy.p0.p0.i64(ptr noundef nonnull align 8 dereferenceable(48) %21, ptr noundef nonnull align 8 dereferenceable(48) %1, i64 48, i1 false)
  %22 = load ptr, ptr %5, align 8, !tbaa !11
  %23 = getelementptr inbounds nuw ptr, ptr %22, i64 %20
  store ptr null, ptr %23, align 8, !tbaa !17
  %24 = load i32, ptr %3, align 4, !tbaa !4
  %25 = add i32 %24, 1
  store i32 %25, ptr %3, align 4, !tbaa !4
  br label %append_pad.exit

append_pad.exit:                                  ; preds = %.thread.i, %18, %19
  %.0.i = phi i32 [ 0, %19 ], [ -12, %18 ], [ -12, %.thread.i ]
  ret i32 %.0.i
}